target datalayout = "e-m:e-p270:32:32-p271:32:32-p272:64:64-i64:64-i128:128-f80:128-n8:16:32:64-S128"
target triple = "x86_64-pc-linux-gnu"

%struct.jpeg_decompress_struct = type { ptr, ptr, ptr, ptr, i32, i32, ptr, i32, i32, i32, i32, i32, i32, i32, double, i32, i32, i32, i32, i32, i32, i32, i32, i32, i32, i32, i32, i32, i32, i32, i32, i32, i32, ptr, i32, i32, i32, i32, i32, ptr, [4 x ptr], [4 x ptr], [4 x ptr], i32, ptr, i32, i32, [16 x i8], [16 x i8], [16 x i8], i32, i32, i8, i8, i8, i16, i16, i32, i8, i32, ptr, i32, i32, i32, i32, ptr, i32, [4 x ptr], i32, i32, i32, [10 x i32], i32, i32, i32, i32, i32, ptr, ptr, ptr, ptr, ptr, ptr, ptr, ptr, ptr, ptr, ptr }
%struct.jpeg_error_mgr = type { ptr, ptr, ptr, ptr, ptr, i32, %union.anon, i32, i64, ptr, i32, ptr, i32, i32 }
%union.anon = type { [8 x i32], [48 x i8] }
%struct.stream_source_mgr = type { %struct.jpeg_source_mgr, ptr, ptr, i32 }
%struct.jpeg_source_mgr = type { ptr, i64, ptr, ptr, ptr, ptr, ptr }
%struct.SplashStream = type { ptr, ptr, ptr, %union.anon.0 }
%union.anon.0 = type { %struct.anon.1 }
%struct.anon.1 = type { ptr, ptr }

; Function Attrs: nounwind uwtable
define internal i32 @stream_fill_input_buffer(ptr noundef %0) #0 {
  %2 = alloca ptr, align 8
  %3 = alloca ptr, align 8
  %4 = alloca i64, align 8
  store ptr %0, ptr %2, align 8
  %5 = load ptr, ptr %2, align 8
  %6 = getelementptr inbounds %struct.jpeg_decompress_struct, ptr %5, i32 0, i32 6
  %7 = load ptr, ptr %6, align 8
  store ptr %7, ptr %3, align 8
  %8 = load ptr, ptr %3, align 8
  %9 = getelementptr inbounds %struct.stream_source_mgr, ptr %8, i32 0, i32 1
  %10 = load ptr, ptr %9, align 8
  %11 = getelementptr inbounds %struct.SplashStream, ptr %10, i32 0, i32 0
  %12 = load ptr, ptr %11, align 8
  %13 = load ptr, ptr %3, align 8
  %14 = getelementptr inbounds %struct.stream_source_mgr, ptr %13, i32 0, i32 1
  %15 = load ptr, ptr %14, align 8
  %16 = load ptr, ptr %3, align 8
  %17 = getelementptr inbounds %struct.stream_source_mgr, ptr %16, i32 0, i32 2
  %18 = load ptr, ptr %17, align 8
  %19 = call i32 %12(ptr noundef %15, ptr noundef %18, i32 noundef 4096)
  %20 = sext i32 %19 to i64
  store i64 %20, ptr %4, align 8
  %21 = load i64, ptr %4, align 8
  %22 = icmp ule i64 %21, 0
  br i1 %22, label %23, label %58

23:                                               ; preds = %1
  %24 = load ptr, ptr %3, align 8
  %25 = getelementptr inbounds %struct.stream_source_mgr, ptr %24, i32 0, i32 3
  %26 = load i32, ptr %25, align 8
  %27 = icmp ne i32 %26, 0
  br i1 %27, label %28, label %39

28:                                               ; preds = %23
  %29 = load ptr, ptr %2, align 8
  %30 = getelementptr inbounds %struct.jpeg_decompress_struct, ptr %29, i32 0, i32 0
  %31 = load ptr, ptr %30, align 8
  %32 = getelementptr inbounds %struct.jpeg_error_mgr, ptr %31, i32 0, i32 5
  store i32 42, ptr %32, align 8
  %33 = load ptr, ptr %2, align 8
  %34 = getelementptr inbounds %struct.jpeg_decompress_struct, ptr %33, i32 0, i32 0
  %35 = load ptr, ptr %34, align 8
  %36 = getelementptr inbounds %struct.jpeg_error_mgr, ptr %35, i32 0, i32 0
  %37 = load ptr, ptr %36, align 8
  %38 = load ptr, ptr %2, align 8
  call void %37(ptr noundef %38)
  br label %39

39:                                               ; preds = %28, %23
  %40 = load ptr, ptr %2, align 8
  %41 = getelementptr inbounds %struct.jpeg_decompress_struct, ptr %40, i32 0, i32 0
  %42 = load ptr, ptr %41, align 8
  %43 = getelementptr inbounds %struct.jpeg_error_mgr, ptr %42, i32 0, i32 5
  store i32 120, ptr %43, align 8
  %44 = load ptr, ptr %2, align 8
  %45 = getelementptr inbounds %struct.jpeg_decompress_struct, ptr %44, i32 0, i32 0
  %46 = load ptr, ptr %45, align 8
  %47 = getelementptr inbounds %struct.jpeg_error_mgr, ptr %46, i32 0, i32 1
  %48 = load ptr, ptr %47, align 8
  %49 = load ptr, ptr %2, align 8
  call void %48(ptr noundef %49, i32 noundef -1)
  %50 = load ptr, ptr %3, align 8
  %51 = getelementptr inbounds %struct.stream_source_mgr, ptr %50, i32 0, i32 2
  %52 = load ptr, ptr %51, align 8
  %53 = getelementptr inbounds i8, ptr %52, i64 0
  store i8 -1, ptr %53, align 1
  %54 = load ptr, ptr %3, align 8
  %55 = getelementptr inbounds %struct.stream_source_mgr, ptr %54, i32 0, i32 2
  %56 = load ptr, ptr %55, align 8
  %57 = getelementptr inbounds i8, ptr %56, i64 1
  store i8 -39, ptr %57, align 1
  store i64 2, ptr %4, align 8
  br label %58

58:                                               ; preds = %39, %1
  %59 = load ptr, ptr %3, align 8
  %60 = getelementptr inbounds %struct.stream_source_mgr, ptr %59, i32 0, i32 2
  %61 = load ptr, ptr %60, align 8
  %62 = load ptr, ptr %3, align 8
  %63 = getelementptr inbounds %struct.stream_source_mgr, ptr %62, i32 0, i32 0
  %64 = getelementptr inbounds %struct.jpeg_source_mgr, ptr %63, i32 0, i32 0
  store ptr %61, ptr %64, align 8
  %65 = load i64, ptr %4, align 8
  %66 = load ptr, ptr %3, align 8
  %67 = getelementptr inbounds %struct.stream_source_mgr, ptr %66, i32 0, i32 0
  %68 = getelementptr inbounds %struct.jpeg_source_mgr, ptr %67, i32 0, i32 1
  store i64 %65, ptr %68, align 8
  %69 = load ptr, ptr %3, align 8
  %70 = getelementptr inbounds %struct.stream_source_mgr, ptr %69, i32 0, i32 3
  store i32 0, ptr %70, align 8
  ret i32 1
}

; Function Attrs: nounwind uwtable
define internal void @stream_skip_input_data(ptr noundef %0, i64 noundef %1) #0 {
  %3 = alloca ptr, align 8
  %4 = alloca i64, align 8
  %5 = alloca ptr, align 8
  store ptr %0, ptr %3, align 8
  store i64 %1, ptr %4, align 8
  %6 = load ptr, ptr %3, align 8
  %7 = getelementptr inbounds %struct.jpeg_decompress_struct, ptr %6, i32 0, i32 6
  %8 = load ptr, ptr %7, align 8
  store ptr %8, ptr %5, align 8
  %9 = load i64, ptr %4, align 8
  %10 = icmp sgt i64 %9, 0
  br i1 %10, label %11, label %41

11:                                               ; preds = %2
  br label %12

12:                                               ; preds = %19, %11
  %13 = load i64, ptr %4, align 8
  %14 = load ptr, ptr %5, align 8
  %15 = getelementptr inbounds %struct.stream_source_mgr, ptr %14, i32 0, i32 0
  %16 = getelementptr inbounds %struct.jpeg_source_mgr, ptr %15, i32 0, i32 1
  %17 = load i64, ptr %16, align 8
  %18 = icmp sgt i64 %13, %17
  br i1 %18, label %19, label %28

19:                                               ; preds = %12
  %20 = load ptr, ptr %5, align 8
  %21 = getelementptr inbounds %struct.stream_source_mgr, ptr %20, i32 0, i32 0
  %22 = getelementptr inbounds %struct.jpeg_source_mgr, ptr %21, i32 0, i32 1
  %23 = load i64, ptr %22, align 8
  %24 = load i64, ptr %4, align 8
  %25 = sub nsw i64 %24, %23
  store i64 %25, ptr %4, align 8
  %26 = load ptr, ptr %3, align 8
  %27 = call i32 @stream_fill_input_buffer(ptr noundef %26)
  br label %12, !llvm.loop !8

28:                                               ; preds = %12
  %29 = load i64, ptr %4, align 8
  %30 = load ptr, ptr %5, align 8
  %31 = getelementptr inbounds %struct.stream_source_mgr, ptr %30, i32 0, i32 0
  %32 = getelementptr inbounds %struct.jpeg_source_mgr, ptr %31, i32 0, i32 0
  %33 = load ptr, ptr %32, align 8
  %34 = getelementptr inbounds i8, ptr %33, i64 %29
  store ptr %34, ptr %32, align 8
  %35 = load i64, ptr %4, align 8
  %36 = load ptr, ptr %5, align 8
  %37 = getelementptr inbounds %struct.stream_source_mgr, ptr %36, i32 0, i32 0
  %38 = getelementptr inbounds %struct.jpeg_source_mgr, ptr %37, i32 0, i32 1
  %39 = load i64, ptr %38, align 8
  %40 = sub i64 %39, %35
  store i64 %40, ptr %38, align 8
  br label %41

41:                                               ; preds = %28, %2
  ret void
}