; Function Attrs: nounwind uwtable
define internal void @stream_skip_input_data(ptr noundef %0, i64 noundef %1) #0 {
  %3 = getelementptr inbounds i8, ptr %0, i64 40
  %4 = load ptr, ptr %3, align 8
  %5 = icmp sgt i64 %1, 0
  br i1 %5, label %.preheader, label %45

.preheader:                                       ; preds = %2
  %6 = getelementptr inbounds i8, ptr %4, i64 8
  %7 = load i64, ptr %6, align 8
  %8 = icmp slt i64 %7, %1
  br i1 %8, label %.lr.ph, label %._crit_edge

.lr.ph:                                           ; preds = %.preheader, %stream_fill_input_buffer.exit
  %9 = phi i64 [ %40, %stream_fill_input_buffer.exit ], [ %7, %.preheader ]
  %.013 = phi i64 [ %10, %stream_fill_input_buffer.exit ], [ %1, %.preheader ]
  %10 = sub nsw i64 %.013, %9
  %11 = load ptr, ptr %3, align 8
  %12 = getelementptr inbounds i8, ptr %11, i64 56
  %13 = load ptr, ptr %12, align 8
  %14 = load ptr, ptr %13, align 8
  %15 = getelementptr inbounds i8, ptr %11, i64 64
  %16 = load ptr, ptr %15, align 8
  %17 = tail call i32 %14(ptr noundef nonnull %13, ptr noundef %16, i32 noundef 4096) #11
  %18 = sext i32 %17 to i64
  %19 = icmp eq i32 %17, 0
  br i1 %19, label %20, label %stream_fill_input_buffer.exit

20:                                               ; preds = %.lr.ph
  %21 = getelementptr inbounds i8, ptr %11, i64 72
  %22 = load i32, ptr %21, align 8
  %.not.i = icmp eq i32 %22, 0
  br i1 %.not.i, label %28, label %23

23:                                               ; preds = %20
  %24 = load ptr, ptr %0, align 8
  %25 = getelementptr inbounds i8, ptr %24, i64 40
  store i32 42, ptr %25, align 8
  %26 = load ptr, ptr %0, align 8
  %27 = load ptr, ptr %26, align 8
  tail call void %27(ptr noundef nonnull %0) #11
  br label %28

28:                                               ; preds = %23, %20
  %29 = load ptr, ptr %0, align 8
  %30 = getelementptr inbounds i8, ptr %29, i64 40
  store i32 120, ptr %30, align 8
  %31 = load ptr, ptr %0, align 8
  %32 = getelementptr inbounds i8, ptr %31, i64 8
  %33 = load ptr, ptr %32, align 8
  tail call void %33(ptr noundef nonnull %0, i32 noundef -1) #11
  %34 = load ptr, ptr %15, align 8
  store i8 -1, ptr %34, align 1
  %35 = load ptr, ptr %15, align 8
  %36 = getelementptr inbounds i8, ptr %35, i64 1
  store i8 -39, ptr %36, align 1
  br label %stream_fill_input_buffer.exit

stream_fill_input_buffer.exit:                    ; preds = %.lr.ph, %28
  %.0.i = phi i64 [ 2, %28 ], [ %18, %.lr.ph ]
  %37 = load ptr, ptr %15, align 8
  store ptr %37, ptr %11, align 8
  %38 = getelementptr inbounds i8, ptr %11, i64 8
  store i64 %.0.i, ptr %38, align 8
  %39 = getelementptr inbounds i8, ptr %11, i64 72
  store i32 0, ptr %39, align 8
  %40 = load i64, ptr %6, align 8
  %41 = icmp sgt i64 %10, %40
  br i1 %41, label %.lr.ph, label %._crit_edge, !llvm.loop !8

._crit_edge:                                      ; preds = %stream_fill_input_buffer.exit, %.preheader
  %.0.lcssa = phi i64 [ %1, %.preheader ], [ %10, %stream_fill_input_buffer.exit ]
  %.lcssa = phi i64 [ %7, %.preheader ], [ %40, %stream_fill_input_buffer.exit ]
  %42 = load ptr, ptr %4, align 8
  %43 = getelementptr inbounds i8, ptr %42, i64 %.0.lcssa
  store ptr %43, ptr %4, align 8
  %44 = sub i64 %.lcssa, %.0.lcssa
  store i64 %44, ptr %6, align 8
  br label %45

45:                                               ; preds = %._crit_edge, %2
  ret void
}